target datalayout = "e-m:e-p270:32:32-p271:32:32-p272:64:64-i64:64-i128:128-f80:128-n8:16:32:64-S128"
target triple = "x86_64-pc-linux-gnu"

%struct.global_State = type { ptr, ptr, i64, i64, i64, i64, %struct.stringtable, %struct.TValue, %struct.TValue, i32, [6 x i8], i8, i8, i8, i8, i8, i8, ptr, ptr, ptr, ptr, ptr, ptr, ptr, ptr, ptr, ptr, ptr, ptr, ptr, ptr, ptr, ptr, ptr, ptr, ptr, ptr, ptr, [25 x ptr], [9 x ptr], [53 x [2 x ptr]], ptr, ptr }
%struct.stringtable = type { ptr, i32, i32 }
%struct.TValue = type { %union.Value, i8 }
%union.Value = type { ptr }

; Function Attrs: nounwind uwtable
define hidden void @luaE_setdebt(ptr noundef %0, i64 noundef %1) #0 {
  %3 = alloca ptr, align 8
  %4 = alloca i64, align 8
  %5 = alloca i64, align 8
  store ptr %0, ptr %3, align 8, !tbaa !4
  store i64 %1, ptr %4, align 8, !tbaa !9
  call void @llvm.lifetime.start.p0(i64 8, ptr %5) #6
  %6 = load ptr, ptr %3, align 8, !tbaa !4
  %7 = getelementptr inbounds nuw %struct.global_State, ptr %6, i32 0, i32 2
  %8 = load i64, ptr %7, align 8, !tbaa !11
  %9 = load ptr, ptr %3, align 8, !tbaa !4
  %10 = getelementptr inbounds nuw %struct.global_State, ptr %9, i32 0, i32 3
  %11 = load i64, ptr %10, align 8, !tbaa !21
  %12 = sub nsw i64 %8, %11
  store i64 %12, ptr %5, align 8, !tbaa !9
  %13 = load i64, ptr %4, align 8, !tbaa !9
  %14 = load i64, ptr %5, align 8, !tbaa !9
  %15 = sub nsw i64 9223372036854775807, %14
  %16 = icmp sgt i64 %13, %15
  br i1 %16, label %17, label %20

17:                                               ; preds = %2
  %18 = load i64, ptr %5, align 8, !tbaa !9
  %19 = sub nsw i64 9223372036854775807, %18
  store i64 %19, ptr %4, align 8, !tbaa !9
  br label %20

20:                                               ; preds = %17, %2
  %21 = load i64, ptr %5, align 8, !tbaa !9
  %22 = load i64, ptr %4, align 8, !tbaa !9
  %23 = add nsw i64 %21, %22
  %24 = load ptr, ptr %3, align 8, !tbaa !4
  %25 = getelementptr inbounds nuw %struct.global_State, ptr %24, i32 0, i32 2
  store i64 %23, ptr %25, align 8, !tbaa !11
  %26 = load i64, ptr %4, align 8, !tbaa !9
  %27 = load ptr, ptr %3, align 8, !tbaa !4
  %28 = getelementptr inbounds nuw %struct.global_State, ptr %27, i32 0, i32 3
  store i64 %26, ptr %28, align 8, !tbaa !21
  call void @llvm.lifetime.end.p0(i64 8, ptr %5) #6
  ret void
}