; Function Attrs: mustprogress nofree norecurse nosync nounwind willreturn memory(argmem: readwrite) uwtable
define hidden void @luaE_setdebt(ptr noundef captures(none) %0, i64 noundef %1) local_unnamed_addr #0 {
  %3 = getelementptr inbounds nuw i8, ptr %0, i64 16
  %4 = load i64, ptr %3, align 8, !tbaa !4
  %5 = getelementptr inbounds nuw i8, ptr %0, i64 24
  %6 = load i64, ptr %5, align 8, !tbaa !18
  %7 = sub nsw i64 %4, %6
  %8 = sub nsw i64 9223372036854775807, %7
  %spec.select = tail call i64 @llvm.smin.i64(i64 %1, i64 %8)
  %9 = add nsw i64 %spec.select, %7
  store i64 %9, ptr %3, align 8, !tbaa !4
  store i64 %spec.select, ptr %5, align 8, !tbaa !18
  ret void
}